target datalayout = "e-m:e-p270:32:32-p271:32:32-p272:64:64-i64:64-i128:128-f80:128-n8:16:32:64-S128"
target triple = "x86_64-unknown-linux-gnu"

%"class.node::MutexBase" = type { %union.pthread_mutex_t }
%union.pthread_mutex_t = type { %struct.__pthread_mutex_s }
%struct.__pthread_mutex_s = type { i32, i32, i32, i32, i32, i16, i16, %struct.__pthread_internal_list }
%struct.__pthread_internal_list = type { ptr, ptr }
%"class.std::__cxx11::basic_string" = type { %"struct.std::__cxx11::basic_string<char>::_Alloc_hider", i64, %union.anon }
%"struct.std::__cxx11::basic_string<char>::_Alloc_hider" = type { ptr }
%union.anon = type { i64, [8 x i8] }
%"class.node::MutexBase<node::LibuvMutexTraits>::ScopedLock" = type { ptr }
%"class.std::allocator" = type { i8 }
%"class.v8::Local" = type { %"class.v8::LocalBase" }
%"class.v8::LocalBase" = type { %"class.v8::IndirectHandleBase" }
%"class.v8::IndirectHandleBase" = type { ptr }
%"class.node::Utf8Value" = type { %"class.node::MaybeStackBuffer.3" }
%"class.node::MaybeStackBuffer.3" = type { i64, i64, ptr, [1024 x i8] }
%"class.v8::Local.4" = type { %"class.v8::LocalBase.5" }
%"class.v8::LocalBase.5" = type { %"class.v8::IndirectHandleBase" }
%"class.node::MapKVStore" = type { %"class.node::KVStore", %"class.node::MutexBase", %"class.std::unordered_map" }
%"class.node::KVStore" = type { ptr }
%"class.std::unordered_map" = type { %"class.std::_Hashtable" }
%"class.std::_Hashtable" = type { ptr, i64, %"struct.std::__detail::_Hash_node_base", i64, %"struct.std::__detail::_Prime_rehash_policy", ptr }
%"struct.std::__detail::_Hash_node_base" = type { ptr }
%"struct.std::__detail::_Prime_rehash_policy" = type { float, i64 }

; Function Attrs: mustprogress nounwind uwtable
define linkonce_odr dso_local noundef zeroext i1 @_ZNK4node16MaybeStackBufferIcLm1024EE13IsInvalidatedEv(ptr noundef nonnull align 8 dereferenceable(1048) %this) #4 comdat align 2 {
entry:
  %this.addr = alloca ptr, align 8
  store ptr %this, ptr %this.addr, align 8
  %this1 = load ptr, ptr %this.addr, align 8
  %buf_ = getelementptr inbounds %"class.node::MaybeStackBuffer.3", ptr %this1, i32 0, i32 2
  %0 = load ptr, ptr %buf_, align 8
  %cmp = icmp eq ptr %0, null
  ret i1 %cmp
}

; Function Attrs: mustprogress nounwind uwtable
define linkonce_odr dso_local noundef zeroext i1 @_ZNK4node16MaybeStackBufferIcLm1024EE11IsAllocatedEv(ptr noundef nonnull align 8 dereferenceable(1048) %this) #4 comdat align 2 {
entry:
  %this.addr = alloca ptr, align 8
  store ptr %this, ptr %this.addr, align 8
  %this1 = load ptr, ptr %this.addr, align 8
  %call = call noundef zeroext i1 @_ZNK4node16MaybeStackBufferIcLm1024EE13IsInvalidatedEv(ptr noundef nonnull align 8 dereferenceable(1048) %this1)
  br i1 %call, label %land.end, label %land.rhs

land.rhs:                                         ; preds = %entry
  %buf_ = getelementptr inbounds %"class.node::MaybeStackBuffer.3", ptr %this1, i32 0, i32 2
  %0 = load ptr, ptr %buf_, align 8
  %buf_st_ = getelementptr inbounds %"class.node::MaybeStackBuffer.3", ptr %this1, i32 0, i32 3
  %arraydecay = getelementptr inbounds [1024 x i8], ptr %buf_st_, i64 0, i64 0
  %cmp = icmp ne ptr %0, %arraydecay
  br label %land.end

land.end:                                         ; preds = %land.rhs, %entry
  %1 = phi i1 [ false, %entry ], [ %cmp, %land.rhs ]
  ret i1 %1
}

; Function Attrs: mustprogress nounwind uwtable
define linkonce_odr dso_local void @_ZN4node16LibuvMutexTraits12mutex_unlockEP15pthread_mutex_t(ptr noundef %mutex) #4 comdat align 2 {
entry:
  %mutex.addr = alloca ptr, align 8
  store ptr %mutex, ptr %mutex.addr, align 8
  %0 = load ptr, ptr %mutex.addr, align 8
  call void @uv_mutex_unlock(ptr noundef %0)
  ret void
}

; Function Attrs: mustprogress nounwind uwtable
define linkonce_odr dso_local void @_ZN4node16MaybeStackBufferIcLm1024EED2Ev(ptr noundef nonnull align 8 dereferenceable(1048) %this) unnamed_addr #4 comdat align 2 {
entry:
  %this.addr = alloca ptr, align 8
  store ptr %this, ptr %this.addr, align 8
  %this1 = load ptr, ptr %this.addr, align 8
  %call = call noundef zeroext i1 @_ZNK4node16MaybeStackBufferIcLm1024EE11IsAllocatedEv(ptr noundef nonnull align 8 dereferenceable(1048) %this1)
  br i1 %call, label %if.then, label %if.end

if.then:                                          ; preds = %entry
  %buf_ = getelementptr inbounds %"class.node::MaybeStackBuffer.3", ptr %this1, i32 0, i32 2
  %0 = load ptr, ptr %buf_, align 8
  call void @free(ptr noundef %0) #3
  br label %if.end

if.end:                                           ; preds = %if.then, %entry
  ret void
}

; Function Attrs: mustprogress nounwind uwtable
define linkonce_odr dso_local void @_ZN4node16LibuvMutexTraits10mutex_lockEP15pthread_mutex_t(ptr noundef %mutex) #4 comdat align 2 {
entry:
  %mutex.addr = alloca ptr, align 8
  store ptr %mutex, ptr %mutex.addr, align 8
  %0 = load ptr, ptr %mutex.addr, align 8
  call void @uv_mutex_lock(ptr noundef %0)
  ret void
}

; Function Attrs: mustprogress nounwind uwtable
define linkonce_odr dso_local void @_ZN4node9MutexBaseINS_16LibuvMutexTraitsEE10ScopedLockD2Ev(ptr noundef nonnull align 8 dereferenceable(8) %this) unnamed_addr #4 comdat align 2 {
entry:
  %this.addr = alloca ptr, align 8
  store ptr %this, ptr %this.addr, align 8
  %this1 = load ptr, ptr %this.addr, align 8
  %mutex_ = getelementptr inbounds %"class.node::MutexBase<node::LibuvMutexTraits>::ScopedLock", ptr %this1, i32 0, i32 0
  %0 = load ptr, ptr %mutex_, align 8
  %mutex_2 = getelementptr inbounds %"class.node::MutexBase", ptr %0, i32 0, i32 0
  call void @_ZN4node16LibuvMutexTraits12mutex_unlockEP15pthread_mutex_t(ptr noundef %mutex_2)
  ret void
}

; Function Attrs: mustprogress nounwind uwtable
define linkonce_odr dso_local void @_ZN4node9Utf8ValueD2Ev(ptr noundef nonnull align 8 dereferenceable(1048) %this) unnamed_addr #4 comdat align 2 {
entry:
  %this.addr = alloca ptr, align 8
  store ptr %this, ptr %this.addr, align 8
  %this1 = load ptr, ptr %this.addr, align 8
  call void @_ZN4node16MaybeStackBufferIcLm1024EED2Ev(ptr noundef nonnull align 8 dereferenceable(1048) %this1) #3
  ret void
}

; Function Attrs: mustprogress nounwind uwtable
define linkonce_odr dso_local noundef nonnull align 8 dereferenceable(32) ptr @_ZNSt13unordered_mapINSt7__cxx1112basic_stringIcSt11char_traitsIcESaIcEEES5_St4hashIS5_ESt8equal_toIS5_ESaISt4pairIKS5_S5_EEEixEOS5_(ptr noundef nonnull align 8 dereferenceable(56) %this, ptr noundef nonnull align 8 dereferenceable(32) %__k) #4 comdat align 2 {
entry:
  %this.addr = alloca ptr, align 8
  %__k.addr = alloca ptr, align 8
  store ptr %this, ptr %this.addr, align 8
  store ptr %__k, ptr %__k.addr, align 8
  %this1 = load ptr, ptr %this.addr, align 8
  %_M_h = getelementptr inbounds %"class.std::unordered_map", ptr %this1, i32 0, i32 0
  %0 = load ptr, ptr %__k.addr, align 8
  %call = call noundef nonnull align 8 dereferenceable(32) ptr @_ZNSt8__detail9_Map_baseINSt7__cxx1112basic_stringIcSt11char_traitsIcESaIcEEESt4pairIKS6_S6_ESaIS9_ENS_10_Select1stESt8equal_toIS6_ESt4hashIS6_ENS_18_Mod_range_hashingENS_20_Default_ranged_hashENS_20_Prime_rehash_policyENS_17_Hashtable_traitsILb1ELb0ELb1EEELb1EEixEOS6_(ptr noundef nonnull align 1 dereferenceable(1) %_M_h, ptr noundef nonnull align 8 dereferenceable(32) %0)
  ret ptr %call
}

; Function Attrs: mustprogress nounwind uwtable
define linkonce_odr dso_local noundef i64 @_ZNK4node16MaybeStackBufferIcLm1024EE6lengthEv(ptr noundef nonnull align 8 dereferenceable(1048) %this) #4 comdat align 2 {
entry:
  %this.addr = alloca ptr, align 8
  store ptr %this, ptr %this.addr, align 8
  %this1 = load ptr, ptr %this.addr, align 8
  %length_ = getelementptr inbounds %"class.node::MaybeStackBuffer.3", ptr %this1, i32 0, i32 0
  %0 = load i64, ptr %length_, align 8
  ret i64 %0
}

; Function Attrs: mustprogress nounwind uwtable
define linkonce_odr dso_local noundef ptr @_ZN4node16MaybeStackBufferIcLm1024EEdeEv(ptr noundef nonnull align 8 dereferenceable(1048) %this) #4 comdat align 2 {
entry:
  %this.addr = alloca ptr, align 8
  store ptr %this, ptr %this.addr, align 8
  %this1 = load ptr, ptr %this.addr, align 8
  %buf_ = getelementptr inbounds %"class.node::MaybeStackBuffer.3", ptr %this1, i32 0, i32 2
  %0 = load ptr, ptr %buf_, align 8
  ret ptr %0
}

; Function Attrs: mustprogress nounwind uwtable
define linkonce_odr dso_local void @_ZN4node9MutexBaseINS_16LibuvMutexTraitsEE10ScopedLockC2ERKS2_(ptr noundef nonnull align 8 dereferenceable(8) %this, ptr noundef nonnull align 8 dereferenceable(40) %mutex) unnamed_addr #4 comdat align 2 {
entry:
  %this.addr = alloca ptr, align 8
  %mutex.addr = alloca ptr, align 8
  store ptr %this, ptr %this.addr, align 8
  store ptr %mutex, ptr %mutex.addr, align 8
  %this1 = load ptr, ptr %this.addr, align 8
  %mutex_ = getelementptr inbounds %"class.node::MutexBase<node::LibuvMutexTraits>::ScopedLock", ptr %this1, i32 0, i32 0
  %0 = load ptr, ptr %mutex.addr, align 8
  store ptr %0, ptr %mutex_, align 8
  %mutex_2 = getelementptr inbounds %"class.node::MutexBase<node::LibuvMutexTraits>::ScopedLock", ptr %this1, i32 0, i32 0
  %1 = load ptr, ptr %mutex_2, align 8
  %mutex_3 = getelementptr inbounds %"class.node::MutexBase", ptr %1, i32 0, i32 0
  call void @_ZN4node16LibuvMutexTraits10mutex_lockEP15pthread_mutex_t(ptr noundef %mutex_3)
  ret void
}

; Function Attrs: mustprogress nounwind uwtable
define dso_local void @_ZN4node10MapKVStore3SetEPN2v87IsolateENS1_5LocalINS1_6StringEEES6_(ptr noundef nonnull align 8 dereferenceable(104) %this, ptr noundef %isolate, ptr %key.coerce, ptr %value.coerce) unnamed_addr #4 align 2 {
entry:
  %this.addr.i40 = alloca ptr, align 8
  %other.addr.i41 = alloca ptr, align 8
  %this.addr.i39 = alloca ptr, align 8
  %other.addr.i = alloca ptr, align 8
  %that.i36 = alloca %"class.v8::Local", align 8
  %this.addr.i37 = alloca ptr, align 8
  %that.i = alloca %"class.v8::Local", align 8
  %this.addr.i = alloca ptr, align 8
  %key = alloca %"class.v8::Local", align 8
  %value = alloca %"class.v8::Local", align 8
  %this.addr = alloca ptr, align 8
  %isolate.addr = alloca ptr, align 8
  %lock = alloca %"class.node::MutexBase<node::LibuvMutexTraits>::ScopedLock", align 8
  %key_str = alloca %"class.node::Utf8Value", align 8
  %agg.tmp = alloca %"class.v8::Local.4", align 8
  %agg.tmp7 = alloca %"class.v8::Local", align 8
  %value_str = alloca %"class.node::Utf8Value", align 8
  %agg.tmp14 = alloca %"class.v8::Local.4", align 8
  %agg.tmp15 = alloca %"class.v8::Local", align 8
  %ref.tmp = alloca %"class.std::__cxx11::basic_string", align 8
  %ref.tmp29 = alloca %"class.std::allocator", align 1
  %ref.tmp30 = alloca %"class.std::__cxx11::basic_string", align 8
  %ref.tmp33 = alloca %"class.std::allocator", align 1
  %coerce.dive = getelementptr inbounds %"class.v8::Local", ptr %key, i32 0, i32 0
  %coerce.dive1 = getelementptr inbounds %"class.v8::LocalBase", ptr %coerce.dive, i32 0, i32 0
  %coerce.dive2 = getelementptr inbounds %"class.v8::IndirectHandleBase", ptr %coerce.dive1, i32 0, i32 0
  store ptr %key.coerce, ptr %coerce.dive2, align 8
  %coerce.dive3 = getelementptr inbounds %"class.v8::Local", ptr %value, i32 0, i32 0
  %coerce.dive4 = getelementptr inbounds %"class.v8::LocalBase", ptr %coerce.dive3, i32 0, i32 0
  %coerce.dive5 = getelementptr inbounds %"class.v8::IndirectHandleBase", ptr %coerce.dive4, i32 0, i32 0
  store ptr %value.coerce, ptr %coerce.dive5, align 8
  store ptr %this, ptr %this.addr, align 8
  store ptr %isolate, ptr %isolate.addr, align 8
  %this6 = load ptr, ptr %this.addr, align 8
  %mutex_ = getelementptr inbounds %"class.node::MapKVStore", ptr %this6, i32 0, i32 1
  call void @_ZN4node9MutexBaseINS_16LibuvMutexTraitsEE10ScopedLockC2ERKS2_(ptr noundef nonnull align 8 dereferenceable(8) %lock, ptr noundef nonnull align 8 dereferenceable(40) %mutex_)
  %0 = load ptr, ptr %isolate.addr, align 8
  call void @llvm.memcpy.p0.p0.i64(ptr align 8 %agg.tmp7, ptr align 8 %key, i64 8, i1 false)
  %coerce.dive8 = getelementptr inbounds %"class.v8::Local", ptr %agg.tmp7, i32 0, i32 0
  %coerce.dive9 = getelementptr inbounds %"class.v8::LocalBase", ptr %coerce.dive8, i32 0, i32 0
  %coerce.dive10 = getelementptr inbounds %"class.v8::IndirectHandleBase", ptr %coerce.dive9, i32 0, i32 0
  %1 = load ptr, ptr %coerce.dive10, align 8
  store ptr %1, ptr %that.i, align 8
  store ptr %agg.tmp, ptr %this.addr.i, align 8
  %this3.i = load ptr, ptr %this.addr.i, align 8
  store ptr %this3.i, ptr %this.addr.i40, align 8
  store ptr %that.i, ptr %other.addr.i41, align 8
  %this1.i42 = load ptr, ptr %this.addr.i40, align 8
  %2 = load ptr, ptr %other.addr.i41, align 8
  call void @llvm.memcpy.p0.p0.i64(ptr align 8 %this1.i42, ptr align 8 %2, i64 8, i1 false)
  %coerce.dive11 = getelementptr inbounds %"class.v8::Local.4", ptr %agg.tmp, i32 0, i32 0
  %coerce.dive12 = getelementptr inbounds %"class.v8::LocalBase.5", ptr %coerce.dive11, i32 0, i32 0
  %coerce.dive13 = getelementptr inbounds %"class.v8::IndirectHandleBase", ptr %coerce.dive12, i32 0, i32 0
  %3 = load ptr, ptr %coerce.dive13, align 8
  call void @_ZN4node9Utf8ValueC1EPN2v87IsolateENS1_5LocalINS1_5ValueEEE(ptr noundef nonnull align 8 dereferenceable(1048) %key_str, ptr noundef %0, ptr %3)
  %4 = load ptr, ptr %isolate.addr, align 8
  call void @llvm.memcpy.p0.p0.i64(ptr align 8 %agg.tmp15, ptr align 8 %value, i64 8, i1 false)
  %coerce.dive16 = getelementptr inbounds %"class.v8::Local", ptr %agg.tmp15, i32 0, i32 0
  %coerce.dive17 = getelementptr inbounds %"class.v8::LocalBase", ptr %coerce.dive16, i32 0, i32 0
  %coerce.dive18 = getelementptr inbounds %"class.v8::IndirectHandleBase", ptr %coerce.dive17, i32 0, i32 0
  %5 = load ptr, ptr %coerce.dive18, align 8
  store ptr %5, ptr %that.i36, align 8
  store ptr %agg.tmp14, ptr %this.addr.i37, align 8
  %this3.i38 = load ptr, ptr %this.addr.i37, align 8
  store ptr %this3.i38, ptr %this.addr.i39, align 8
  store ptr %that.i36, ptr %other.addr.i, align 8
  %this1.i = load ptr, ptr %this.addr.i39, align 8
  %6 = load ptr, ptr %other.addr.i, align 8
  call void @llvm.memcpy.p0.p0.i64(ptr align 8 %this1.i, ptr align 8 %6, i64 8, i1 false)
  %coerce.dive19 = getelementptr inbounds %"class.v8::Local.4", ptr %agg.tmp14, i32 0, i32 0
  %coerce.dive20 = getelementptr inbounds %"class.v8::LocalBase.5", ptr %coerce.dive19, i32 0, i32 0
  %coerce.dive21 = getelementptr inbounds %"class.v8::IndirectHandleBase", ptr %coerce.dive20, i32 0, i32 0
  %7 = load ptr, ptr %coerce.dive21, align 8
  call void @_ZN4node9Utf8ValueC1EPN2v87IsolateENS1_5LocalINS1_5ValueEEE(ptr noundef nonnull align 8 dereferenceable(1048) %value_str, ptr noundef %4, ptr %7)
  %call = call noundef ptr @_ZN4node16MaybeStackBufferIcLm1024EEdeEv(ptr noundef nonnull align 8 dereferenceable(1048) %key_str)
  %cmp = icmp ne ptr %call, null
  br i1 %cmp, label %land.lhs.true, label %if.end

land.lhs.true:                                    ; preds = %entry
  %call22 = call noundef i64 @_ZNK4node16MaybeStackBufferIcLm1024EE6lengthEv(ptr noundef nonnull align 8 dereferenceable(1048) %key_str)
  %cmp23 = icmp ugt i64 %call22, 0
  br i1 %cmp23, label %land.lhs.true24, label %if.end

land.lhs.true24:                                  ; preds = %land.lhs.true
  %call25 = call noundef ptr @_ZN4node16MaybeStackBufferIcLm1024EEdeEv(ptr noundef nonnull align 8 dereferenceable(1048) %value_str)
  %cmp26 = icmp ne ptr %call25, null
  br i1 %cmp26, label %if.then, label %if.end

if.then:                                          ; preds = %land.lhs.true24
  %call27 = call noundef ptr @_ZN4node16MaybeStackBufferIcLm1024EEdeEv(ptr noundef nonnull align 8 dereferenceable(1048) %value_str)
  %call28 = call noundef i64 @_ZNK4node16MaybeStackBufferIcLm1024EE6lengthEv(ptr noundef nonnull align 8 dereferenceable(1048) %value_str)
  call void @_ZNSaIcEC1Ev(ptr noundef nonnull align 1 dereferenceable(1) %ref.tmp29) #3
  call void @_ZNSt7__cxx1112basic_stringIcSt11char_traitsIcESaIcEEC1EPKcmRKS3_(ptr noundef nonnull align 8 dereferenceable(32) %ref.tmp, ptr noundef %call27, i64 noundef %call28, ptr noundef nonnull align 1 dereferenceable(1) %ref.tmp29)
  %map_ = getelementptr inbounds %"class.node::MapKVStore", ptr %this6, i32 0, i32 2
  %call31 = call noundef ptr @_ZN4node16MaybeStackBufferIcLm1024EEdeEv(ptr noundef nonnull align 8 dereferenceable(1048) %key_str)
  %call32 = call noundef i64 @_ZNK4node16MaybeStackBufferIcLm1024EE6lengthEv(ptr noundef nonnull align 8 dereferenceable(1048) %key_str)
  call void @_ZNSaIcEC1Ev(ptr noundef nonnull align 1 dereferenceable(1) %ref.tmp33) #3
  call void @_ZNSt7__cxx1112basic_stringIcSt11char_traitsIcESaIcEEC1EPKcmRKS3_(ptr noundef nonnull align 8 dereferenceable(32) %ref.tmp30, ptr noundef %call31, i64 noundef %call32, ptr noundef nonnull align 1 dereferenceable(1) %ref.tmp33)
  %call34 = call noundef nonnull align 8 dereferenceable(32) ptr @_ZNSt13unordered_mapINSt7__cxx1112basic_stringIcSt11char_traitsIcESaIcEEES5_St4hashIS5_ESt8equal_toIS5_ESaISt4pairIKS5_S5_EEEixEOS5_(ptr noundef nonnull align 8 dereferenceable(56) %map_, ptr noundef nonnull align 8 dereferenceable(32) %ref.tmp30)
  %call35 = call noundef nonnull align 8 dereferenceable(32) ptr @_ZNSt7__cxx1112basic_stringIcSt11char_traitsIcESaIcEEaSEOS4_(ptr noundef nonnull align 8 dereferenceable(32) %call34, ptr noundef nonnull align 8 dereferenceable(32) %ref.tmp) #3
  call void @_ZNSt7__cxx1112basic_stringIcSt11char_traitsIcESaIcEED1Ev(ptr noundef nonnull align 8 dereferenceable(32) %ref.tmp30) #3
  call void @_ZNSaIcED1Ev(ptr noundef nonnull align 1 dereferenceable(1) %ref.tmp33) #3
  call void @_ZNSt7__cxx1112basic_stringIcSt11char_traitsIcESaIcEED1Ev(ptr noundef nonnull align 8 dereferenceable(32) %ref.tmp) #3
  call void @_ZNSaIcED1Ev(ptr noundef nonnull align 1 dereferenceable(1) %ref.tmp29) #3
  br label %if.end

if.end:                                           ; preds = %if.then, %land.lhs.true24, %land.lhs.true, %entry
  call void @_ZN4node9Utf8ValueD2Ev(ptr noundef nonnull align 8 dereferenceable(1048) %value_str) #3
  call void @_ZN4node9Utf8ValueD2Ev(ptr noundef nonnull align 8 dereferenceable(1048) %key_str) #3
  call void @_ZN4node9MutexBaseINS_16LibuvMutexTraitsEE10ScopedLockD2Ev(ptr noundef nonnull align 8 dereferenceable(8) %lock) #3
  ret void
}