; Function Attrs: mustprogress nounwind uwtable
define dso_local void @_ZN4node10MapKVStore3SetEPN2v87IsolateENS1_5LocalINS1_6StringEEES6_(ptr noundef nonnull align 8 dereferenceable(104) %this, ptr noundef %isolate, ptr %key.coerce, ptr %value.coerce) unnamed_addr #3 align 2 {
entry:
  %key_str = alloca %"class.node::Utf8Value", align 8
  %value_str = alloca %"class.node::Utf8Value", align 8
  %ref.tmp = alloca %"class.std::__cxx11::basic_string", align 8
  %ref.tmp29 = alloca %"class.std::allocator", align 1
  %ref.tmp30 = alloca %"class.std::__cxx11::basic_string", align 8
  %ref.tmp33 = alloca %"class.std::allocator", align 1
  %mutex_ = getelementptr inbounds i8, ptr %this, i64 8
  tail call void @uv_mutex_lock(ptr noundef nonnull %mutex_) #20
  call void @_ZN4node9Utf8ValueC1EPN2v87IsolateENS1_5LocalINS1_5ValueEEE(ptr noundef nonnull align 8 dereferenceable(1048) %key_str, ptr noundef %isolate, ptr %key.coerce) #20
  call void @_ZN4node9Utf8ValueC1EPN2v87IsolateENS1_5LocalINS1_5ValueEEE(ptr noundef nonnull align 8 dereferenceable(1048) %value_str, ptr noundef %isolate, ptr %value.coerce) #20
  %buf_.i = getelementptr inbounds i8, ptr %key_str, i64 16
  %0 = load ptr, ptr %buf_.i, align 8
  %cmp.not = icmp eq ptr %0, null
  %1 = load i64, ptr %key_str, align 8
  %cmp23.not = icmp eq i64 %1, 0
  %or.cond = select i1 %cmp.not, i1 true, i1 %cmp23.not
  br i1 %or.cond, label %if.end, label %land.lhs.true24

land.lhs.true24:                                  ; preds = %entry
  %buf_.i2 = getelementptr inbounds i8, ptr %value_str, i64 16
  %2 = load ptr, ptr %buf_.i2, align 8
  %cmp26.not = icmp eq ptr %2, null
  br i1 %cmp26.not, label %if.end, label %if.then

if.then:                                          ; preds = %land.lhs.true24
  %3 = load i64, ptr %value_str, align 8
  call void @_ZNSaIcEC1Ev(ptr noundef nonnull align 1 dereferenceable(1) %ref.tmp29) #20
  call void @_ZNSt7__cxx1112basic_stringIcSt11char_traitsIcESaIcEEC1EPKcmRKS3_(ptr noundef nonnull align 8 dereferenceable(32) %ref.tmp, ptr noundef nonnull %2, i64 noundef %3, ptr noundef nonnull align 1 dereferenceable(1) %ref.tmp29) #20
  %map_ = getelementptr inbounds i8, ptr %this, i64 48
  %4 = load ptr, ptr %buf_.i, align 8
  %5 = load i64, ptr %key_str, align 8
  call void @_ZNSaIcEC1Ev(ptr noundef nonnull align 1 dereferenceable(1) %ref.tmp33) #20
  call void @_ZNSt7__cxx1112basic_stringIcSt11char_traitsIcESaIcEEC1EPKcmRKS3_(ptr noundef nonnull align 8 dereferenceable(32) %ref.tmp30, ptr noundef %4, i64 noundef %5, ptr noundef nonnull align 1 dereferenceable(1) %ref.tmp33) #20
  %call.i = call noundef nonnull align 8 dereferenceable(32) ptr @_ZNSt8__detail9_Map_baseINSt7__cxx1112basic_stringIcSt11char_traitsIcESaIcEEESt4pairIKS6_S6_ESaIS9_ENS_10_Select1stESt8equal_toIS6_ESt4hashIS6_ENS_18_Mod_range_hashingENS_20_Default_ranged_hashENS_20_Prime_rehash_policyENS_17_Hashtable_traitsILb1ELb0ELb1EEELb1EEixEOS6_(ptr noundef nonnull align 1 dereferenceable(1) %map_, ptr noundef nonnull align 8 dereferenceable(32) %ref.tmp30)
  %call35 = call noundef nonnull align 8 dereferenceable(32) ptr @_ZNSt7__cxx1112basic_stringIcSt11char_traitsIcESaIcEEaSEOS4_(ptr noundef nonnull align 8 dereferenceable(32) %call.i, ptr noundef nonnull align 8 dereferenceable(32) %ref.tmp) #20
  call void @_ZNSt7__cxx1112basic_stringIcSt11char_traitsIcESaIcEED1Ev(ptr noundef nonnull align 8 dereferenceable(32) %ref.tmp30) #20
  call void @_ZNSaIcED1Ev(ptr noundef nonnull align 1 dereferenceable(1) %ref.tmp33) #20
  call void @_ZNSt7__cxx1112basic_stringIcSt11char_traitsIcESaIcEED1Ev(ptr noundef nonnull align 8 dereferenceable(32) %ref.tmp) #20
  call void @_ZNSaIcED1Ev(ptr noundef nonnull align 1 dereferenceable(1) %ref.tmp29) #20
  br label %if.end

if.end:                                           ; preds = %if.then, %land.lhs.true24, %entry
  %buf_.i.i.i.i = getelementptr inbounds i8, ptr %value_str, i64 16
  %6 = load ptr, ptr %buf_.i.i.i.i, align 8
  %cmp.i.i.i.i = icmp ne ptr %6, null
  %buf_st_.i.i.i = getelementptr inbounds i8, ptr %value_str, i64 24
  %cmp.i.i.i = icmp ne ptr %6, %buf_st_.i.i.i
  %7 = select i1 %cmp.i.i.i.i, i1 %cmp.i.i.i, i1 false
  br i1 %7, label %if.then.i.i, label %_ZN4node9Utf8ValueD2Ev.exit

if.then.i.i:                                      ; preds = %if.end
  call void @free(ptr noundef nonnull %6) #20
  br label %_ZN4node9Utf8ValueD2Ev.exit

_ZN4node9Utf8ValueD2Ev.exit:                      ; preds = %if.end, %if.then.i.i
  %8 = load ptr, ptr %buf_.i, align 8
  %cmp.i.i.i.i6 = icmp ne ptr %8, null
  %buf_st_.i.i.i7 = getelementptr inbounds i8, ptr %key_str, i64 24
  %cmp.i.i.i8 = icmp ne ptr %8, %buf_st_.i.i.i7
  %9 = select i1 %cmp.i.i.i.i6, i1 %cmp.i.i.i8, i1 false
  br i1 %9, label %if.then.i.i9, label %_ZN4node9Utf8ValueD2Ev.exit10

if.then.i.i9:                                     ; preds = %_ZN4node9Utf8ValueD2Ev.exit
  call void @free(ptr noundef nonnull %8) #20
  br label %_ZN4node9Utf8ValueD2Ev.exit10

_ZN4node9Utf8ValueD2Ev.exit10:                    ; preds = %_ZN4node9Utf8ValueD2Ev.exit, %if.then.i.i9
  call void @uv_mutex_unlock(ptr noundef nonnull %mutex_) #20
  ret void
}